; ModuleID = 'source-C-CXX/6/259.c'
source_filename = "source-C-CXX/6/259.c"
target datalayout = "e-m:e-p270:32:32-p271:32:32-p272:64:64-i64:64-f80:128-n8:16:32:64-S128"
target triple = "x86_64-pc-linux-gnu"

@.str = private unnamed_addr constant [3 x i8] c"%s\00", align 1

; Function Attrs: nounwind sspstrong uwtable
define dso_local i32 @main() local_unnamed_addr #0 {
  %1 = alloca [100 x i8], align 16
  %2 = alloca [100 x i8], align 16
  %3 = alloca [100 x i8], align 16
  %4 = getelementptr inbounds [100 x i8], [100 x i8]* %1, i64 0, i64 0
  call void @llvm.lifetime.start.p0i8(i64 100, i8* nonnull %4) #5
  %5 = getelementptr inbounds [100 x i8], [100 x i8]* %2, i64 0, i64 0
  call void @llvm.lifetime.start.p0i8(i64 100, i8* nonnull %5) #5
  %6 = getelementptr inbounds [100 x i8], [100 x i8]* %3, i64 0, i64 0
  call void @llvm.lifetime.start.p0i8(i64 100, i8* nonnull %6) #5
  %7 = call i32 (i8*, ...) bitcast (i32 (...)* @gets to i32 (i8*, ...)*)(i8* nonnull %4) #5
  %8 = call i32 (i8*, ...) bitcast (i32 (...)* @gets to i32 (i8*, ...)*)(i8* nonnull %5) #5
  %9 = call i32 (i8*, ...) bitcast (i32 (...)* @gets to i32 (i8*, ...)*)(i8* nonnull %6) #5
  %10 = call i64 @strlen(i8* noundef nonnull %5) #6
  %11 = trunc i64 %10 to i32
  %12 = load i8, i8* %5, align 16
  %13 = load i8, i8* %4, align 16, !tbaa !5
  %14 = icmp eq i8 %13, 0
  br i1 %14, label %60, label %15

15:                                               ; preds = %0
  %16 = icmp eq i8 %12, 0
  br i1 %16, label %17, label %19

17:                                               ; preds = %15
  %18 = icmp eq i32 %11, 0
  br i1 %18, label %42, label %60

19:                                               ; preds = %15, %55
  %20 = phi i64 [ %56, %55 ], [ 0, %15 ]
  br label %21

21:                                               ; preds = %19, %29
  %22 = phi i64 [ 0, %19 ], [ %30, %29 ]
  %23 = phi i8 [ %12, %19 ], [ %33, %29 ]
  %24 = phi i32 [ 0, %19 ], [ %31, %29 ]
  %25 = add nuw nsw i64 %22, %20
  %26 = getelementptr inbounds [100 x i8], [100 x i8]* %1, i64 0, i64 %25
  %27 = load i8, i8* %26, align 1, !tbaa !5
  %28 = icmp eq i8 %23, %27
  br i1 %28, label %29, label %35

29:                                               ; preds = %21
  %30 = add nuw i64 %22, 1
  %31 = add nuw nsw i32 %24, 1
  %32 = getelementptr inbounds [100 x i8], [100 x i8]* %2, i64 0, i64 %30
  %33 = load i8, i8* %32, align 1, !tbaa !5
  %34 = icmp eq i8 %33, 0
  br i1 %34, label %37, label %21, !llvm.loop !8

35:                                               ; preds = %21
  %36 = trunc i64 %22 to i32
  br label %37

37:                                               ; preds = %29, %35
  %38 = phi i32 [ %36, %35 ], [ %31, %29 ]
  %39 = icmp eq i32 %38, %11
  br i1 %39, label %40, label %55

40:                                               ; preds = %37
  %41 = and i64 %20, 4294967295
  br label %42

42:                                               ; preds = %40, %17
  %43 = phi i64 [ 0, %17 ], [ %41, %40 ]
  %44 = load i8, i8* %6, align 16, !tbaa !5
  %45 = icmp eq i8 %44, 0
  br i1 %45, label %60, label %46

46:                                               ; preds = %42, %46
  %47 = phi i64 [ %51, %46 ], [ 0, %42 ]
  %48 = phi i8 [ %53, %46 ], [ %44, %42 ]
  %49 = add nuw nsw i64 %47, %43
  %50 = getelementptr inbounds [100 x i8], [100 x i8]* %1, i64 0, i64 %49
  store i8 %48, i8* %50, align 1, !tbaa !5
  %51 = add nuw nsw i64 %47, 1
  %52 = getelementptr inbounds [100 x i8], [100 x i8]* %3, i64 0, i64 %51
  %53 = load i8, i8* %52, align 1, !tbaa !5
  %54 = icmp eq i8 %53, 0
  br i1 %54, label %60, label %46, !llvm.loop !10

55:                                               ; preds = %37
  %56 = add nuw i64 %20, 1
  %57 = getelementptr inbounds [100 x i8], [100 x i8]* %1, i64 0, i64 %56
  %58 = load i8, i8* %57, align 1, !tbaa !5
  %59 = icmp eq i8 %58, 0
  br i1 %59, label %60, label %19, !llvm.loop !11

60:                                               ; preds = %55, %46, %17, %0, %42
  %61 = call i32 (i8*, ...) @printf(i8* nonnull dereferenceable(1) getelementptr inbounds ([3 x i8], [3 x i8]* @.str, i64 0, i64 0), i8* nonnull %4)
  call void @llvm.lifetime.end.p0i8(i64 100, i8* nonnull %6) #5
  call void @llvm.lifetime.end.p0i8(i64 100, i8* nonnull %5) #5
  call void @llvm.lifetime.end.p0i8(i64 100, i8* nonnull %4) #5
  ret i32 0
}

; Function Attrs: argmemonly mustprogress nofree nosync nounwind willreturn
declare void @llvm.lifetime.start.p0i8(i64 immarg, i8* nocapture) #1

declare i32 @gets(...) local_unnamed_addr #2

; Function Attrs: argmemonly mustprogress nofree nounwind readonly willreturn
declare i64 @strlen(i8* nocapture) local_unnamed_addr #3

; Function Attrs: nofree nounwind
declare noundef i32 @printf(i8* nocapture noundef readonly, ...) local_unnamed_addr #4

; Function Attrs: argmemonly mustprogress nofree nosync nounwind willreturn
declare void @llvm.lifetime.end.p0i8(i64 immarg, i8* nocapture) #1


!llvm.module.flags = !{!0, !1, !2, !3}
!llvm.ident = !{!4}

!0 = !{i32 1, !"wchar_size", i32 4}
!1 = !{i32 7, !"PIC Level", i32 2}
!2 = !{i32 7, !"PIE Level", i32 2}
!3 = !{i32 7, !"uwtable", i32 1}
!4 = !{!"clang version 13.0.0"}
!5 = !{!6, !6, i64 0}
!6 = !{!"omnipotent char", !7, i64 0}
!7 = !{!"Simple C/C++ TBAA"}
!8 = distinct !{!8, !9}
!9 = !{!"llvm.loop.mustprogress"}
!10 = distinct !{!10, !9}
!11 = distinct !{!11, !9}
